; Function Attrs: mustprogress uwtable
define hidden void @_ZN23expr_context_simplifier10reduce_recEP10quantifierR7obj_refI4expr11ast_managerE(ptr noundef nonnull readnone align 8 captures(none) dereferenceable(161) %0, ptr noundef %1, ptr noundef nonnull align 8 captures(none) dereferenceable(16) %2) local_unnamed_addr #3 align 2 {
  %.not.i = icmp eq ptr %1, null
  br i1 %.not.i, label %7, label %_ZN11ast_manager7inc_refEP3ast.exit.i

_ZN11ast_manager7inc_refEP3ast.exit.i:            ; preds = %3
  %4 = getelementptr inbounds nuw i8, ptr %1, i64 8
  %5 = load i32, ptr %4, align 4, !tbaa !51
  %6 = add i32 %5, 1
  store i32 %6, ptr %4, align 4, !tbaa !51
  br label %7

7:                                                ; preds = %_ZN11ast_manager7inc_refEP3ast.exit.i, %3
  %8 = load ptr, ptr %2, align 8, !tbaa !55
  %.not.i4.i = icmp eq ptr %8, null
  br i1 %.not.i4.i, label %_ZN7obj_refI4expr11ast_managerEaSEPS0_.exit, label %9

9:                                                ; preds = %7
  %10 = getelementptr inbounds nuw i8, ptr %2, i64 8
  %11 = load ptr, ptr %10, align 8, !tbaa !60
  %12 = getelementptr inbounds nuw i8, ptr %8, i64 8
  %13 = load i32, ptr %12, align 4, !tbaa !51
  %14 = add i32 %13, -1
  store i32 %14, ptr %12, align 4, !tbaa !51
  %15 = icmp eq i32 %14, 0
  br i1 %15, label %16, label %_ZN7obj_refI4expr11ast_managerEaSEPS0_.exit

16:                                               ; preds = %9
  tail call void @_ZN11ast_manager11delete_nodeEP3ast(ptr noundef nonnull align 8 dereferenceable(976) %11, ptr noundef nonnull %8)
  br label %_ZN7obj_refI4expr11ast_managerEaSEPS0_.exit

_ZN7obj_refI4expr11ast_managerEaSEPS0_.exit:      ; preds = %7, %9, %16
  store ptr %1, ptr %2, align 8, !tbaa !55
  ret void
}